target datalayout = "e-m:e-p270:32:32-p271:32:32-p272:64:64-i64:64-i128:128-f80:128-n8:16:32:64-S128"
target triple = "x86_64-pc-linux-gnu"

%"class.std::ios_base::Init" = type { i8 }
%"class.std::basic_ostream" = type { ptr, %"class.std::basic_ios" }
%"class.std::basic_ios" = type { %"class.std::ios_base", ptr, i8, i8, ptr, ptr, ptr, ptr }
%"class.std::ios_base" = type { ptr, i64, i64, i32, i32, i32, ptr, %"struct.std::ios_base::_Words", [8 x %"struct.std::ios_base::_Words"], i32, ptr, %"class.std::locale" }
%"struct.std::ios_base::_Words" = type { ptr, i64 }
%"class.std::locale" = type { ptr }
%"class.std::ctype" = type <{ %"class.std::locale::facet.base", [4 x i8], ptr, i8, [7 x i8], ptr, ptr, ptr, i8, [256 x i8], [256 x i8], i8, [6 x i8] }>
%"class.std::locale::facet.base" = type <{ ptr, i32 }>

$_ZSt13__check_facetISt5ctypeIcEERKT_PS3_ = comdat any

$_ZNKSt5ctypeIcE5widenEc = comdat any

@_ZStL8__ioinit = internal global %"class.std::ios_base::Init" zeroinitializer, align 1
@__dso_handle = external hidden global i8
@_ZSt4cout = external global %"class.std::basic_ostream", align 8
@llvm.global_ctors = appending global [1 x { i32, ptr, ptr }] [{ i32, ptr, ptr } { i32 65535, ptr @_GLOBAL__sub_I_cmake_thread_test.cc, ptr null }]

; Function Attrs: uwtable
define internal void @__cxx_global_var_init() #0 section ".text.startup" {
  call void @_ZNSt8ios_base4InitC1Ev(ptr noundef nonnull align 1 dereferenceable(1) @_ZStL8__ioinit)
  %1 = call i32 @__cxa_atexit(ptr @_ZNSt8ios_base4InitD1Ev, ptr @_ZStL8__ioinit, ptr @__dso_handle) #3
  ret void
}

declare void @_ZNSt8ios_base4InitC1Ev(ptr noundef nonnull align 1 dereferenceable(1)) unnamed_addr #1

; Function Attrs: nounwind
declare void @_ZNSt8ios_base4InitD1Ev(ptr noundef nonnull align 1 dereferenceable(1)) unnamed_addr #2

; Function Attrs: nounwind
declare i32 @__cxa_atexit(ptr, ptr, ptr) #3

; Function Attrs: mustprogress norecurse uwtable
define dso_local noundef i32 @main() #4 {
  %1 = alloca ptr, align 8
  call void @llvm.lifetime.start.p0(i64 8, ptr %1) #3
  %2 = call noundef ptr @_ZN4absl13base_internal30CurrentThreadIdentityIfPresentEv()
  store ptr %2, ptr %1, align 8, !tbaa !4
  %3 = load ptr, ptr %1, align 8, !tbaa !4
  %4 = call noundef nonnull align 8 dereferenceable(8) ptr @_ZNSolsEPKv(ptr noundef nonnull align 8 dereferenceable(8) @_ZSt4cout, ptr noundef %3)
  %5 = call noundef nonnull align 8 dereferenceable(8) ptr @_ZNSolsEPFRSoS_E(ptr noundef nonnull align 8 dereferenceable(8) %4, ptr noundef @_ZSt4endlIcSt11char_traitsIcEERSt13basic_ostreamIT_T0_ES6_)
  call void @llvm.lifetime.end.p0(i64 8, ptr %1) #3
  ret i32 0
}

; Function Attrs: nocallback nofree nosync nounwind willreturn memory(argmem: readwrite)
declare void @llvm.lifetime.start.p0(i64 immarg, ptr captures(none)) #5

declare noundef ptr @_ZN4absl13base_internal30CurrentThreadIdentityIfPresentEv() #1

; Function Attrs: mustprogress uwtable
define available_externally noundef nonnull align 8 dereferenceable(8) ptr @_ZNSolsEPKv(ptr noundef nonnull align 8 dereferenceable(8) %0, ptr noundef %1) #6 align 2 {
  %3 = alloca ptr, align 8
  %4 = alloca ptr, align 8
  store ptr %0, ptr %3, align 8, !tbaa !9
  store ptr %1, ptr %4, align 8, !tbaa !11
  %5 = load ptr, ptr %3, align 8
  %6 = load ptr, ptr %4, align 8, !tbaa !11
  %7 = call noundef nonnull align 8 dereferenceable(8) ptr @_ZNSo9_M_insertIPKvEERSoT_(ptr noundef nonnull align 8 dereferenceable(8) %5, ptr noundef %6)
  ret ptr %7
}

; Function Attrs: mustprogress uwtable
define available_externally noundef nonnull align 8 dereferenceable(8) ptr @_ZNSolsEPFRSoS_E(ptr noundef nonnull align 8 dereferenceable(8) %0, ptr noundef %1) #6 align 2 {
  %3 = alloca ptr, align 8
  %4 = alloca ptr, align 8
  store ptr %0, ptr %3, align 8, !tbaa !9
  store ptr %1, ptr %4, align 8, !tbaa !11
  %5 = load ptr, ptr %3, align 8
  %6 = load ptr, ptr %4, align 8, !tbaa !11
  %7 = call noundef nonnull align 8 dereferenceable(8) ptr %6(ptr noundef nonnull align 8 dereferenceable(8) %5)
  ret ptr %7
}

; Function Attrs: inlinehint mustprogress uwtable
define available_externally noundef nonnull align 8 dereferenceable(8) ptr @_ZSt4endlIcSt11char_traitsIcEERSt13basic_ostreamIT_T0_ES6_(ptr noundef nonnull align 8 dereferenceable(8) %0) #7 {
  %2 = alloca ptr, align 8
  store ptr %0, ptr %2, align 8, !tbaa !9
  %3 = load ptr, ptr %2, align 8, !tbaa !9
  %4 = load ptr, ptr %2, align 8, !tbaa !9
  %5 = load ptr, ptr %4, align 8, !tbaa !12
  %6 = getelementptr i8, ptr %5, i64 -24
  %7 = load i64, ptr %6, align 8
  %8 = getelementptr inbounds i8, ptr %4, i64 %7
  %9 = call noundef signext i8 @_ZNKSt9basic_iosIcSt11char_traitsIcEE5widenEc(ptr noundef nonnull align 8 dereferenceable(264) %8, i8 noundef signext 10)
  %10 = call noundef nonnull align 8 dereferenceable(8) ptr @_ZNSo3putEc(ptr noundef nonnull align 8 dereferenceable(8) %3, i8 noundef signext %9)
  %11 = call noundef nonnull align 8 dereferenceable(8) ptr @_ZSt5flushIcSt11char_traitsIcEERSt13basic_ostreamIT_T0_ES6_(ptr noundef nonnull align 8 dereferenceable(8) %10)
  ret ptr %11
}

; Function Attrs: nocallback nofree nosync nounwind willreturn memory(argmem: readwrite)
declare void @llvm.lifetime.end.p0(i64 immarg, ptr captures(none)) #5

declare noundef nonnull align 8 dereferenceable(8) ptr @_ZNSo9_M_insertIPKvEERSoT_(ptr noundef nonnull align 8 dereferenceable(8), ptr noundef) #1

; Function Attrs: inlinehint mustprogress uwtable
define available_externally noundef nonnull align 8 dereferenceable(8) ptr @_ZSt5flushIcSt11char_traitsIcEERSt13basic_ostreamIT_T0_ES6_(ptr noundef nonnull align 8 dereferenceable(8) %0) #7 {
  %2 = alloca ptr, align 8
  store ptr %0, ptr %2, align 8, !tbaa !9
  %3 = load ptr, ptr %2, align 8, !tbaa !9
  %4 = call noundef nonnull align 8 dereferenceable(8) ptr @_ZNSo5flushEv(ptr noundef nonnull align 8 dereferenceable(8) %3)
  ret ptr %4
}

declare noundef nonnull align 8 dereferenceable(8) ptr @_ZNSo3putEc(ptr noundef nonnull align 8 dereferenceable(8), i8 noundef signext) #1

; Function Attrs: mustprogress uwtable
define available_externally noundef signext i8 @_ZNKSt9basic_iosIcSt11char_traitsIcEE5widenEc(ptr noundef nonnull align 8 dereferenceable(264) %0, i8 noundef signext %1) #6 align 2 {
  %3 = alloca ptr, align 8
  %4 = alloca i8, align 1
  store ptr %0, ptr %3, align 8, !tbaa !14
  store i8 %1, ptr %4, align 1, !tbaa !16
  %5 = load ptr, ptr %3, align 8
  %6 = getelementptr inbounds nuw %"class.std::basic_ios", ptr %5, i32 0, i32 5
  %7 = load ptr, ptr %6, align 8, !tbaa !17
  %8 = call noundef nonnull align 8 dereferenceable(570) ptr @_ZSt13__check_facetISt5ctypeIcEERKT_PS3_(ptr noundef %7)
  %9 = load i8, ptr %4, align 1, !tbaa !16
  %10 = call noundef signext i8 @_ZNKSt5ctypeIcE5widenEc(ptr noundef nonnull align 8 dereferenceable(570) %8, i8 noundef signext %9)
  ret i8 %10
}

declare noundef nonnull align 8 dereferenceable(8) ptr @_ZNSo5flushEv(ptr noundef nonnull align 8 dereferenceable(8)) #1

; Function Attrs: inlinehint mustprogress uwtable
define linkonce_odr dso_local noundef nonnull align 8 dereferenceable(570) ptr @_ZSt13__check_facetISt5ctypeIcEERKT_PS3_(ptr noundef %0) #7 comdat {
  %2 = alloca ptr, align 8
  store ptr %0, ptr %2, align 8, !tbaa !34
  %3 = load ptr, ptr %2, align 8, !tbaa !34
  %4 = icmp ne ptr %3, null
  br i1 %4, label %6, label %5

5:                                                ; preds = %1
  call void @_ZSt16__throw_bad_castv() #9
  unreachable

6:                                                ; preds = %1
  %7 = load ptr, ptr %2, align 8, !tbaa !34
  ret ptr %7
}

; Function Attrs: mustprogress uwtable
define linkonce_odr dso_local noundef signext i8 @_ZNKSt5ctypeIcE5widenEc(ptr noundef nonnull align 8 dereferenceable(570) %0, i8 noundef signext %1) #6 comdat align 2 {
  %3 = alloca i8, align 1
  %4 = alloca ptr, align 8
  %5 = alloca i8, align 1
  store ptr %0, ptr %4, align 8, !tbaa !34
  store i8 %1, ptr %5, align 1, !tbaa !16
  %6 = load ptr, ptr %4, align 8
  %7 = getelementptr inbounds nuw %"class.std::ctype", ptr %6, i32 0, i32 8
  %8 = load i8, ptr %7, align 8, !tbaa !35
  %9 = icmp ne i8 %8, 0
  br i1 %9, label %10, label %16

10:                                               ; preds = %2
  %11 = getelementptr inbounds nuw %"class.std::ctype", ptr %6, i32 0, i32 9
  %12 = load i8, ptr %5, align 1, !tbaa !16
  %13 = zext i8 %12 to i64
  %14 = getelementptr inbounds nuw [256 x i8], ptr %11, i64 0, i64 %13
  %15 = load i8, ptr %14, align 1, !tbaa !16
  store i8 %15, ptr %3, align 1
  br label %22

16:                                               ; preds = %2
  call void @_ZNKSt5ctypeIcE13_M_widen_initEv(ptr noundef nonnull align 8 dereferenceable(570) %6)
  %17 = load i8, ptr %5, align 1, !tbaa !16
  %18 = load ptr, ptr %6, align 8, !tbaa !12
  %19 = getelementptr inbounds ptr, ptr %18, i64 6
  %20 = load ptr, ptr %19, align 8
  %21 = call noundef signext i8 %20(ptr noundef nonnull align 8 dereferenceable(570) %6, i8 noundef signext %17)
  store i8 %21, ptr %3, align 1
  br label %22

22:                                               ; preds = %16, %10
  %23 = load i8, ptr %3, align 1
  ret i8 %23
}

; Function Attrs: noreturn
declare void @_ZSt16__throw_bad_castv() #8

declare void @_ZNKSt5ctypeIcE13_M_widen_initEv(ptr noundef nonnull align 8 dereferenceable(570)) #1

; Function Attrs: uwtable
define internal void @_GLOBAL__sub_I_cmake_thread_test.cc() #0 section ".text.startup" {
  call void @__cxx_global_var_init()
  ret void
}


!llvm.module.flags = !{!0, !1, !2, !3}

!0 = !{i32 1, !"wchar_size", i32 4}
!1 = !{i32 8, !"PIC Level", i32 2}
!2 = !{i32 7, !"PIE Level", i32 2}
!3 = !{i32 7, !"uwtable", i32 2}
!4 = !{!5, !5, i64 0}
!5 = !{!"p1 _ZTSN4absl13base_internal14ThreadIdentityE", !6, i64 0}
!6 = !{!"any pointer", !7, i64 0}
!7 = !{!"omnipotent char", !8, i64 0}
!8 = !{!"Simple C++ TBAA"}
!9 = !{!10, !10, i64 0}
!10 = !{!"p1 _ZTSSo", !6, i64 0}
!11 = !{!6, !6, i64 0}
!12 = !{!13, !13, i64 0}
!13 = !{!"vtable pointer", !8, i64 0}
!14 = !{!15, !15, i64 0}
!15 = !{!"p1 _ZTSSt9basic_iosIcSt11char_traitsIcEE", !6, i64 0}
!16 = !{!7, !7, i64 0}
!17 = !{!18, !31, i64 240}
!18 = !{!"_ZTSSt9basic_iosIcSt11char_traitsIcEE", !19, i64 0, !10, i64 216, !7, i64 224, !29, i64 225, !30, i64 232, !31, i64 240, !32, i64 248, !33, i64 256}
!19 = !{!"_ZTSSt8ios_base", !20, i64 8, !20, i64 16, !21, i64 24, !22, i64 28, !22, i64 32, !23, i64 40, !24, i64 48, !7, i64 64, !25, i64 192, !26, i64 200, !27, i64 208}
!20 = !{!"long", !7, i64 0}
!21 = !{!"_ZTSSt13_Ios_Fmtflags", !7, i64 0}
!22 = !{!"_ZTSSt12_Ios_Iostate", !7, i64 0}
!23 = !{!"p1 _ZTSNSt8ios_base14_Callback_listE", !6, i64 0}
!24 = !{!"_ZTSNSt8ios_base6_WordsE", !6, i64 0, !20, i64 8}
!25 = !{!"int", !7, i64 0}
!26 = !{!"p1 _ZTSNSt8ios_base6_WordsE", !6, i64 0}
!27 = !{!"_ZTSSt6locale", !28, i64 0}
!28 = !{!"p1 _ZTSNSt6locale5_ImplE", !6, i64 0}
!29 = !{!"bool", !7, i64 0}
!30 = !{!"p1 _ZTSSt15basic_streambufIcSt11char_traitsIcEE", !6, i64 0}
!31 = !{!"p1 _ZTSSt5ctypeIcE", !6, i64 0}
!32 = !{!"p1 _ZTSSt7num_putIcSt19ostreambuf_iteratorIcSt11char_traitsIcEEE", !6, i64 0}
!33 = !{!"p1 _ZTSSt7num_getIcSt19istreambuf_iteratorIcSt11char_traitsIcEEE", !6, i64 0}
!34 = !{!31, !31, i64 0}
!35 = !{!36, !7, i64 56}
!36 = !{!"_ZTSSt5ctypeIcE", !37, i64 0, !38, i64 16, !29, i64 24, !39, i64 32, !39, i64 40, !40, i64 48, !7, i64 56, !7, i64 57, !7, i64 313, !7, i64 569}
!37 = !{!"_ZTSNSt6locale5facetE", !25, i64 8}
!38 = !{!"p1 _ZTS15__locale_struct", !6, i64 0}
!39 = !{!"p1 int", !6, i64 0}
!40 = !{!"p1 short", !6, i64 0}
