; ModuleID = 'bench/abseil-cpp/original/cmake_thread_test.ll'
source_filename = "bench/abseil-cpp/original/cmake_thread_test.ll"
target datalayout = "e-m:e-p270:32:32-p271:32:32-p272:64:64-i64:64-i128:128-f80:128-n8:16:32:64-S128"
target triple = "x86_64-pc-linux-gnu"

%"class.std::ios_base::Init" = type { i8 }
%"class.std::basic_ostream" = type { ptr, %"class.std::basic_ios" }
%"class.std::basic_ios" = type { %"class.std::ios_base", ptr, i8, i8, ptr, ptr, ptr, ptr }
%"class.std::ios_base" = type { ptr, i64, i64, i32, i32, i32, ptr, %"struct.std::ios_base::_Words", [8 x %"struct.std::ios_base::_Words"], i32, ptr, %"class.std::locale" }
%"struct.std::ios_base::_Words" = type { ptr, i64 }
%"class.std::locale" = type { ptr }

@_ZStL8__ioinit = internal global %"class.std::ios_base::Init" zeroinitializer, align 1
@__dso_handle = external hidden global i8
@_ZSt4cout = external global %"class.std::basic_ostream", align 8
@llvm.global_ctors = appending global [1 x { i32, ptr, ptr }] [{ i32, ptr, ptr } { i32 65535, ptr @_GLOBAL__sub_I_cmake_thread_test.cc, ptr null }]

declare void @_ZNSt8ios_base4InitC1Ev(ptr noundef nonnull align 1 dereferenceable(1)) unnamed_addr #0

; Function Attrs: nounwind
declare void @_ZNSt8ios_base4InitD1Ev(ptr noundef nonnull align 1 dereferenceable(1)) unnamed_addr #1

; Function Attrs: nofree nounwind
declare i32 @__cxa_atexit(ptr, ptr, ptr) local_unnamed_addr #2

; Function Attrs: mustprogress norecurse uwtable
define dso_local noundef i32 @main() local_unnamed_addr #3 {
  %1 = tail call noundef ptr @_ZN4absl13base_internal30CurrentThreadIdentityIfPresentEv()
  %2 = tail call noundef nonnull align 8 dereferenceable(8) ptr @_ZNSo9_M_insertIPKvEERSoT_(ptr noundef nonnull align 8 dereferenceable(8) @_ZSt4cout, ptr noundef %1)
  %3 = load ptr, ptr %2, align 8, !tbaa !4
  %4 = getelementptr i8, ptr %3, i64 -24
  %5 = load i64, ptr %4, align 8
  %6 = getelementptr inbounds i8, ptr %2, i64 %5
  %7 = getelementptr inbounds nuw i8, ptr %6, i64 240
  %8 = load ptr, ptr %7, align 8, !tbaa !7
  %.not.i.i.i = icmp eq ptr %8, null
  br i1 %.not.i.i.i, label %9, label %_ZSt13__check_facetISt5ctypeIcEERKT_PS3_.exit.i.i

9:                                                ; preds = %0
  tail call void @_ZSt16__throw_bad_castv() #6
  unreachable

_ZSt13__check_facetISt5ctypeIcEERKT_PS3_.exit.i.i: ; preds = %0
  %10 = getelementptr inbounds nuw i8, ptr %8, i64 56
  %11 = load i8, ptr %10, align 8, !tbaa !27
  %.not.i1.i.i = icmp eq i8 %11, 0
  br i1 %.not.i1.i.i, label %15, label %12

12:                                               ; preds = %_ZSt13__check_facetISt5ctypeIcEERKT_PS3_.exit.i.i
  %13 = getelementptr inbounds nuw i8, ptr %8, i64 67
  %14 = load i8, ptr %13, align 1, !tbaa !33
  br label %_ZSt4endlIcSt11char_traitsIcEERSt13basic_ostreamIT_T0_ES6_.exit

15:                                               ; preds = %_ZSt13__check_facetISt5ctypeIcEERKT_PS3_.exit.i.i
  tail call void @_ZNKSt5ctypeIcE13_M_widen_initEv(ptr noundef nonnull align 8 dereferenceable(570) %8)
  %16 = load ptr, ptr %8, align 8, !tbaa !4
  %17 = getelementptr inbounds nuw i8, ptr %16, i64 48
  %18 = load ptr, ptr %17, align 8
  %19 = tail call noundef signext i8 %18(ptr noundef nonnull align 8 dereferenceable(570) %8, i8 noundef signext 10)
  br label %_ZSt4endlIcSt11char_traitsIcEERSt13basic_ostreamIT_T0_ES6_.exit

_ZSt4endlIcSt11char_traitsIcEERSt13basic_ostreamIT_T0_ES6_.exit: ; preds = %12, %15
  %.0.i.i.i = phi i8 [ %14, %12 ], [ %19, %15 ]
  %20 = tail call noundef nonnull align 8 dereferenceable(8) ptr @_ZNSo3putEc(ptr noundef nonnull align 8 dereferenceable(8) %2, i8 noundef signext %.0.i.i.i)
  %21 = tail call noundef nonnull align 8 dereferenceable(8) ptr @_ZNSo5flushEv(ptr noundef nonnull align 8 dereferenceable(8) %20)
  ret i32 0
}

declare noundef ptr @_ZN4absl13base_internal30CurrentThreadIdentityIfPresentEv() local_unnamed_addr #0

declare noundef nonnull align 8 dereferenceable(8) ptr @_ZNSo9_M_insertIPKvEERSoT_(ptr noundef nonnull align 8 dereferenceable(8), ptr noundef) local_unnamed_addr #0

declare noundef nonnull align 8 dereferenceable(8) ptr @_ZNSo3putEc(ptr noundef nonnull align 8 dereferenceable(8), i8 noundef signext) local_unnamed_addr #0

declare noundef nonnull align 8 dereferenceable(8) ptr @_ZNSo5flushEv(ptr noundef nonnull align 8 dereferenceable(8)) local_unnamed_addr #0

; Function Attrs: noreturn
declare void @_ZSt16__throw_bad_castv() local_unnamed_addr #4

declare void @_ZNKSt5ctypeIcE13_M_widen_initEv(ptr noundef nonnull align 8 dereferenceable(570)) local_unnamed_addr #0

; Function Attrs: uwtable
define internal void @_GLOBAL__sub_I_cmake_thread_test.cc() #5 section ".text.startup" {
  tail call void @_ZNSt8ios_base4InitC1Ev(ptr noundef nonnull align 1 dereferenceable(1) @_ZStL8__ioinit)
  %1 = tail call i32 @__cxa_atexit(ptr nonnull @_ZNSt8ios_base4InitD1Ev, ptr nonnull @_ZStL8__ioinit, ptr nonnull @__dso_handle) #7
  ret void
}


!llvm.module.flags = !{!0, !1, !2, !3}

!0 = !{i32 1, !"wchar_size", i32 4}
!1 = !{i32 8, !"PIC Level", i32 2}
!2 = !{i32 7, !"PIE Level", i32 2}
!3 = !{i32 7, !"uwtable", i32 2}
!4 = !{!5, !5, i64 0}
!5 = !{!"vtable pointer", !6, i64 0}
!6 = !{!"Simple C++ TBAA"}
!7 = !{!8, !24, i64 240}
!8 = !{!"_ZTSSt9basic_iosIcSt11char_traitsIcEE", !9, i64 0, !21, i64 216, !11, i64 224, !22, i64 225, !23, i64 232, !24, i64 240, !25, i64 248, !26, i64 256}
!9 = !{!"_ZTSSt8ios_base", !10, i64 8, !10, i64 16, !12, i64 24, !13, i64 28, !13, i64 32, !14, i64 40, !16, i64 48, !11, i64 64, !17, i64 192, !18, i64 200, !19, i64 208}
!10 = !{!"long", !11, i64 0}
!11 = !{!"omnipotent char", !6, i64 0}
!12 = !{!"_ZTSSt13_Ios_Fmtflags", !11, i64 0}
!13 = !{!"_ZTSSt12_Ios_Iostate", !11, i64 0}
!14 = !{!"p1 _ZTSNSt8ios_base14_Callback_listE", !15, i64 0}
!15 = !{!"any pointer", !11, i64 0}
!16 = !{!"_ZTSNSt8ios_base6_WordsE", !15, i64 0, !10, i64 8}
!17 = !{!"int", !11, i64 0}
!18 = !{!"p1 _ZTSNSt8ios_base6_WordsE", !15, i64 0}
!19 = !{!"_ZTSSt6locale", !20, i64 0}
!20 = !{!"p1 _ZTSNSt6locale5_ImplE", !15, i64 0}
!21 = !{!"p1 _ZTSSo", !15, i64 0}
!22 = !{!"bool", !11, i64 0}
!23 = !{!"p1 _ZTSSt15basic_streambufIcSt11char_traitsIcEE", !15, i64 0}
!24 = !{!"p1 _ZTSSt5ctypeIcE", !15, i64 0}
!25 = !{!"p1 _ZTSSt7num_putIcSt19ostreambuf_iteratorIcSt11char_traitsIcEEE", !15, i64 0}
!26 = !{!"p1 _ZTSSt7num_getIcSt19istreambuf_iteratorIcSt11char_traitsIcEEE", !15, i64 0}
!27 = !{!28, !11, i64 56}
!28 = !{!"_ZTSSt5ctypeIcE", !29, i64 0, !30, i64 16, !22, i64 24, !31, i64 32, !31, i64 40, !32, i64 48, !11, i64 56, !11, i64 57, !11, i64 313, !11, i64 569}
!29 = !{!"_ZTSNSt6locale5facetE", !17, i64 8}
!30 = !{!"p1 _ZTS15__locale_struct", !15, i64 0}
!31 = !{!"p1 int", !15, i64 0}
!32 = !{!"p1 short", !15, i64 0}
!33 = !{!11, !11, i64 0}
